ARM GAS  C:\Users\annat\AppData\Local\Temp\ccs4K4nN.s 			page 1


   1              		.syntax unified
   2              		.cpu cortex-m3
   3              		.fpu softvfp
   4              		.eabi_attribute 20, 1
   5              		.eabi_attribute 21, 1
   6              		.eabi_attribute 23, 3
   7              		.eabi_attribute 24, 1
   8              		.eabi_attribute 25, 1
   9              		.eabi_attribute 26, 1
  10              		.eabi_attribute 30, 1
  11              		.eabi_attribute 34, 1
  12              		.eabi_attribute 18, 4
  13              		.thumb
  14              		.syntax unified
  15              		.file	"I2C_Interface.c"
  16              		.text
  17              	.Ltext0:
  18              		.cfi_sections	.debug_frame
  19              		.section	.text.I2C_Peripheral_Start,"ax",%progbits
  20              		.align	2
  21              		.global	I2C_Peripheral_Start
  22              		.thumb
  23              		.thumb_func
  24              		.type	I2C_Peripheral_Start, %function
  25              	I2C_Peripheral_Start:
  26              	.LFB0:
  27              		.file 1 "I2C_Interface.c"
   1:I2C_Interface.c **** /*
   2:I2C_Interface.c **** * This file includes all the required source code to interface
   3:I2C_Interface.c **** * the I2C peripheral.
   4:I2C_Interface.c **** */
   5:I2C_Interface.c **** 
   6:I2C_Interface.c **** /**
   7:I2C_Interface.c **** *   \brief Value returned if device present on I2C bus.
   8:I2C_Interface.c **** */
   9:I2C_Interface.c **** #ifndef DEVICE_CONNECTED
  10:I2C_Interface.c ****     #define DEVICE_CONNECTED 1
  11:I2C_Interface.c **** #endif
  12:I2C_Interface.c **** 
  13:I2C_Interface.c **** /**
  14:I2C_Interface.c **** *   \brief Value returned if device not present on I2C bus.
  15:I2C_Interface.c **** */
  16:I2C_Interface.c **** #ifndef DEVICE_UNCONNECTED
  17:I2C_Interface.c ****     #define DEVICE_UNCONNECTED 0
  18:I2C_Interface.c **** #endif
  19:I2C_Interface.c **** 
  20:I2C_Interface.c **** #include "I2C_Interface.h" 
  21:I2C_Interface.c **** #include "I2C_Master.h"
  22:I2C_Interface.c **** 
  23:I2C_Interface.c ****     ErrorCode I2C_Peripheral_Start(void) 
  24:I2C_Interface.c ****     {
  28              		.loc 1 24 0
  29              		.cfi_startproc
  30              		@ args = 0, pretend = 0, frame = 0
  31              		@ frame_needed = 0, uses_anonymous_args = 0
  32 0000 08B5     		push	{r3, lr}
  33              		.cfi_def_cfa_offset 8
ARM GAS  C:\Users\annat\AppData\Local\Temp\ccs4K4nN.s 			page 2


  34              		.cfi_offset 3, -8
  35              		.cfi_offset 14, -4
  25:I2C_Interface.c ****         // Start I2C peripheral
  26:I2C_Interface.c ****         I2C_Master_Start();  
  36              		.loc 1 26 0
  37 0002 FFF7FEFF 		bl	I2C_Master_Start
  38              	.LVL0:
  27:I2C_Interface.c ****         
  28:I2C_Interface.c ****         // Return no error since start function does not return any error
  29:I2C_Interface.c ****         return NO_ERROR;
  30:I2C_Interface.c ****     }
  39              		.loc 1 30 0
  40 0006 0020     		movs	r0, #0
  41 0008 08BD     		pop	{r3, pc}
  42              		.cfi_endproc
  43              	.LFE0:
  44              		.size	I2C_Peripheral_Start, .-I2C_Peripheral_Start
  45 000a 00BF     		.section	.text.I2C_Peripheral_Stop,"ax",%progbits
  46              		.align	2
  47              		.global	I2C_Peripheral_Stop
  48              		.thumb
  49              		.thumb_func
  50              		.type	I2C_Peripheral_Stop, %function
  51              	I2C_Peripheral_Stop:
  52              	.LFB1:
  31:I2C_Interface.c ****     
  32:I2C_Interface.c ****     
  33:I2C_Interface.c ****     ErrorCode I2C_Peripheral_Stop(void)
  34:I2C_Interface.c ****     {
  53              		.loc 1 34 0
  54              		.cfi_startproc
  55              		@ args = 0, pretend = 0, frame = 0
  56              		@ frame_needed = 0, uses_anonymous_args = 0
  57 0000 08B5     		push	{r3, lr}
  58              		.cfi_def_cfa_offset 8
  59              		.cfi_offset 3, -8
  60              		.cfi_offset 14, -4
  35:I2C_Interface.c ****         // Stop I2C peripheral
  36:I2C_Interface.c ****         I2C_Master_Stop();
  61              		.loc 1 36 0
  62 0002 FFF7FEFF 		bl	I2C_Master_Stop
  63              	.LVL1:
  37:I2C_Interface.c ****         // Return no error since stop function does not return any error
  38:I2C_Interface.c ****         return NO_ERROR;
  39:I2C_Interface.c ****     }
  64              		.loc 1 39 0
  65 0006 0020     		movs	r0, #0
  66 0008 08BD     		pop	{r3, pc}
  67              		.cfi_endproc
  68              	.LFE1:
  69              		.size	I2C_Peripheral_Stop, .-I2C_Peripheral_Stop
  70 000a 00BF     		.section	.text.I2C_Peripheral_ReadRegister,"ax",%progbits
  71              		.align	2
  72              		.global	I2C_Peripheral_ReadRegister
  73              		.thumb
  74              		.thumb_func
  75              		.type	I2C_Peripheral_ReadRegister, %function
ARM GAS  C:\Users\annat\AppData\Local\Temp\ccs4K4nN.s 			page 3


  76              	I2C_Peripheral_ReadRegister:
  77              	.LFB2:
  40:I2C_Interface.c **** 
  41:I2C_Interface.c ****     ErrorCode I2C_Peripheral_ReadRegister(uint8_t device_address, 
  42:I2C_Interface.c ****                                             uint8_t register_address,
  43:I2C_Interface.c ****                                             uint8_t* data)
  44:I2C_Interface.c ****     {
  78              		.loc 1 44 0
  79              		.cfi_startproc
  80              		@ args = 0, pretend = 0, frame = 0
  81              		@ frame_needed = 0, uses_anonymous_args = 0
  82              	.LVL2:
  83 0000 F8B5     		push	{r3, r4, r5, r6, r7, lr}
  84              		.cfi_def_cfa_offset 24
  85              		.cfi_offset 3, -24
  86              		.cfi_offset 4, -20
  87              		.cfi_offset 5, -16
  88              		.cfi_offset 6, -12
  89              		.cfi_offset 7, -8
  90              		.cfi_offset 14, -4
  91 0002 0646     		mov	r6, r0
  92 0004 0D46     		mov	r5, r1
  93 0006 1746     		mov	r7, r2
  45:I2C_Interface.c ****         // Send start condition
  46:I2C_Interface.c ****         uint8_t error = I2C_Master_MasterSendStart(device_address,I2C_Master_WRITE_XFER_MODE);
  94              		.loc 1 46 0
  95 0008 0021     		movs	r1, #0
  96              	.LVL3:
  97 000a FFF7FEFF 		bl	I2C_Master_MasterSendStart
  98              	.LVL4:
  47:I2C_Interface.c ****         if (error == I2C_Master_MSTR_NO_ERROR)
  99              		.loc 1 47 0
 100 000e 0446     		mov	r4, r0
 101 0010 68B9     		cbnz	r0, .L6
  48:I2C_Interface.c ****         {
  49:I2C_Interface.c ****             // Write address of register to be read
  50:I2C_Interface.c ****             error = I2C_Master_MasterWriteByte(register_address);
 102              		.loc 1 50 0
 103 0012 2846     		mov	r0, r5
 104              	.LVL5:
 105 0014 FFF7FEFF 		bl	I2C_Master_MasterWriteByte
 106              	.LVL6:
  51:I2C_Interface.c ****             if (error == I2C_Master_MSTR_NO_ERROR)
 107              		.loc 1 51 0
 108 0018 0446     		mov	r4, r0
 109 001a 40B9     		cbnz	r0, .L6
  52:I2C_Interface.c ****             {
  53:I2C_Interface.c ****                 // Send restart condition
  54:I2C_Interface.c ****                 error = I2C_Master_MasterSendRestart(device_address, I2C_Master_READ_XFER_MODE);
 110              		.loc 1 54 0
 111 001c 0121     		movs	r1, #1
 112 001e 3046     		mov	r0, r6
 113              	.LVL7:
 114 0020 FFF7FEFF 		bl	I2C_Master_MasterSendRestart
 115              	.LVL8:
  55:I2C_Interface.c ****                 if (error == I2C_Master_MSTR_NO_ERROR)
 116              		.loc 1 55 0
ARM GAS  C:\Users\annat\AppData\Local\Temp\ccs4K4nN.s 			page 4


 117 0024 0446     		mov	r4, r0
 118 0026 10B9     		cbnz	r0, .L6
  56:I2C_Interface.c ****                 {
  57:I2C_Interface.c ****                     // Read data without acknowledgement
  58:I2C_Interface.c ****                     *data = I2C_Master_MasterReadByte(I2C_Master_NAK_DATA);
 119              		.loc 1 58 0
 120 0028 FFF7FEFF 		bl	I2C_Master_MasterReadByte
 121              	.LVL9:
 122 002c 3870     		strb	r0, [r7]
 123              	.L6:
 124              	.LVL10:
  59:I2C_Interface.c ****                 }
  60:I2C_Interface.c ****             }
  61:I2C_Interface.c ****         }
  62:I2C_Interface.c ****         // Send stop condition
  63:I2C_Interface.c ****         I2C_Master_MasterSendStop();
 125              		.loc 1 63 0
 126 002e FFF7FEFF 		bl	I2C_Master_MasterSendStop
 127              	.LVL11:
  64:I2C_Interface.c ****         // Return error code
  65:I2C_Interface.c ****         return error ? ERROR : NO_ERROR;
  66:I2C_Interface.c ****     }
 128              		.loc 1 66 0
 129 0032 201C     		adds	r0, r4, #0
 130 0034 18BF     		it	ne
 131 0036 0120     		movne	r0, #1
 132 0038 F8BD     		pop	{r3, r4, r5, r6, r7, pc}
 133              		.cfi_endproc
 134              	.LFE2:
 135              		.size	I2C_Peripheral_ReadRegister, .-I2C_Peripheral_ReadRegister
 136 003a 00BF     		.section	.text.I2C_Peripheral_ReadRegisterMulti,"ax",%progbits
 137              		.align	2
 138              		.global	I2C_Peripheral_ReadRegisterMulti
 139              		.thumb
 140              		.thumb_func
 141              		.type	I2C_Peripheral_ReadRegisterMulti, %function
 142              	I2C_Peripheral_ReadRegisterMulti:
 143              	.LFB3:
  67:I2C_Interface.c ****     
  68:I2C_Interface.c ****     ErrorCode I2C_Peripheral_ReadRegisterMulti(uint8_t device_address,
  69:I2C_Interface.c ****                                                 uint8_t register_address,
  70:I2C_Interface.c ****                                                 uint8_t register_count,
  71:I2C_Interface.c ****                                                 uint8_t* data)
  72:I2C_Interface.c ****     {
 144              		.loc 1 72 0
 145              		.cfi_startproc
 146              		@ args = 0, pretend = 0, frame = 0
 147              		@ frame_needed = 0, uses_anonymous_args = 0
 148              	.LVL12:
 149 0000 2DE9F041 		push	{r4, r5, r6, r7, r8, lr}
 150              		.cfi_def_cfa_offset 24
 151              		.cfi_offset 4, -24
 152              		.cfi_offset 5, -20
 153              		.cfi_offset 6, -16
 154              		.cfi_offset 7, -12
 155              		.cfi_offset 8, -8
 156              		.cfi_offset 14, -4
ARM GAS  C:\Users\annat\AppData\Local\Temp\ccs4K4nN.s 			page 5


 157 0004 0646     		mov	r6, r0
 158 0006 0D46     		mov	r5, r1
 159 0008 9046     		mov	r8, r2
 160 000a 1F46     		mov	r7, r3
  73:I2C_Interface.c ****         
  74:I2C_Interface.c ****         uint8_t error = I2C_Master_MasterSendStart(device_address,I2C_Master_WRITE_XFER_MODE);
 161              		.loc 1 74 0
 162 000c 0021     		movs	r1, #0
 163              	.LVL13:
 164 000e FFF7FEFF 		bl	I2C_Master_MasterSendStart
 165              	.LVL14:
  75:I2C_Interface.c ****         if (error == I2C_Master_MSTR_NO_ERROR)
 166              		.loc 1 75 0
 167 0012 0446     		mov	r4, r0
 168 0014 B0B9     		cbnz	r0, .L9
  76:I2C_Interface.c ****         {
  77:I2C_Interface.c ****             // Write address of register to be read
  78:I2C_Interface.c ****             error = I2C_Master_MasterWriteByte(register_address);
 169              		.loc 1 78 0
 170 0016 2846     		mov	r0, r5
 171              	.LVL15:
 172 0018 FFF7FEFF 		bl	I2C_Master_MasterWriteByte
 173              	.LVL16:
  79:I2C_Interface.c ****             if (error == I2C_Master_MSTR_NO_ERROR)
 174              		.loc 1 79 0
 175 001c 0446     		mov	r4, r0
 176 001e 88B9     		cbnz	r0, .L9
  80:I2C_Interface.c ****             {
  81:I2C_Interface.c ****                 // Send restart condition
  82:I2C_Interface.c ****                 error = I2C_Master_MasterSendRestart(device_address, I2C_Master_READ_XFER_MODE);
 177              		.loc 1 82 0
 178 0020 0121     		movs	r1, #1
 179 0022 3046     		mov	r0, r6
 180              	.LVL17:
 181 0024 FFF7FEFF 		bl	I2C_Master_MasterSendRestart
 182              	.LVL18:
  83:I2C_Interface.c ****                 if (error == I2C_Master_MSTR_NO_ERROR)
 183              		.loc 1 83 0
 184 0028 0446     		mov	r4, r0
 185 002a 58B9     		cbnz	r0, .L9
  84:I2C_Interface.c ****                 {
  85:I2C_Interface.c ****                     // Read data without acknowledgement
  86:I2C_Interface.c ****                     if(register_count == 0){
 186              		.loc 1 86 0
 187 002c B8F1000F 		cmp	r8, #0
 188 0030 04D1     		bne	.L10
  87:I2C_Interface.c ****                         *data = I2C_Master_MasterReadByte(I2C_Master_ACK_DATA);
 189              		.loc 1 87 0
 190 0032 0120     		movs	r0, #1
 191              	.LVL19:
 192 0034 FFF7FEFF 		bl	I2C_Master_MasterReadByte
 193              	.LVL20:
 194 0038 3870     		strb	r0, [r7]
 195 003a 03E0     		b	.L9
 196              	.LVL21:
 197              	.L10:
  88:I2C_Interface.c ****                     }else{
ARM GAS  C:\Users\annat\AppData\Local\Temp\ccs4K4nN.s 			page 6


  89:I2C_Interface.c ****                         *data = I2C_Master_MasterReadByte(I2C_Master_NAK_DATA);
 198              		.loc 1 89 0
 199 003c 0020     		movs	r0, #0
 200              	.LVL22:
 201 003e FFF7FEFF 		bl	I2C_Master_MasterReadByte
 202              	.LVL23:
 203 0042 3870     		strb	r0, [r7]
 204              	.L9:
 205              	.LVL24:
  90:I2C_Interface.c ****                     }
  91:I2C_Interface.c ****                 }
  92:I2C_Interface.c ****             }
  93:I2C_Interface.c ****         }
  94:I2C_Interface.c ****         // Send stop condition
  95:I2C_Interface.c ****         I2C_Master_MasterSendStop();
 206              		.loc 1 95 0
 207 0044 FFF7FEFF 		bl	I2C_Master_MasterSendStop
 208              	.LVL25:
  96:I2C_Interface.c ****         // Return error code
  97:I2C_Interface.c ****         return error ? ERROR : NO_ERROR;
  98:I2C_Interface.c ****         
  99:I2C_Interface.c ****     }
 209              		.loc 1 99 0
 210 0048 201C     		adds	r0, r4, #0
 211 004a 18BF     		it	ne
 212 004c 0120     		movne	r0, #1
 213 004e BDE8F081 		pop	{r4, r5, r6, r7, r8, pc}
 214              		.cfi_endproc
 215              	.LFE3:
 216              		.size	I2C_Peripheral_ReadRegisterMulti, .-I2C_Peripheral_ReadRegisterMulti
 217 0052 00BF     		.section	.text.I2C_Peripheral_WriteRegister,"ax",%progbits
 218              		.align	2
 219              		.global	I2C_Peripheral_WriteRegister
 220              		.thumb
 221              		.thumb_func
 222              		.type	I2C_Peripheral_WriteRegister, %function
 223              	I2C_Peripheral_WriteRegister:
 224              	.LFB4:
 100:I2C_Interface.c ****     
 101:I2C_Interface.c ****     ErrorCode I2C_Peripheral_WriteRegister(uint8_t device_address,
 102:I2C_Interface.c ****                                             uint8_t register_address,
 103:I2C_Interface.c ****                                             uint8_t data)
 104:I2C_Interface.c ****     {
 225              		.loc 1 104 0
 226              		.cfi_startproc
 227              		@ args = 0, pretend = 0, frame = 0
 228              		@ frame_needed = 0, uses_anonymous_args = 0
 229              	.LVL26:
 230 0000 70B5     		push	{r4, r5, r6, lr}
 231              		.cfi_def_cfa_offset 16
 232              		.cfi_offset 4, -16
 233              		.cfi_offset 5, -12
 234              		.cfi_offset 6, -8
 235              		.cfi_offset 14, -4
 236 0002 0D46     		mov	r5, r1
 237 0004 1646     		mov	r6, r2
 105:I2C_Interface.c ****         // Send start condition
ARM GAS  C:\Users\annat\AppData\Local\Temp\ccs4K4nN.s 			page 7


 106:I2C_Interface.c ****         uint8_t error = I2C_Master_MasterSendStart(device_address, I2C_Master_WRITE_XFER_MODE);
 238              		.loc 1 106 0
 239 0006 0021     		movs	r1, #0
 240              	.LVL27:
 241 0008 FFF7FEFF 		bl	I2C_Master_MasterSendStart
 242              	.LVL28:
 107:I2C_Interface.c ****         if (error == I2C_Master_MSTR_NO_ERROR)
 243              		.loc 1 107 0
 244 000c 0446     		mov	r4, r0
 245 000e 40B9     		cbnz	r0, .L13
 108:I2C_Interface.c ****         {
 109:I2C_Interface.c ****             // Write register address
 110:I2C_Interface.c ****             error = I2C_Master_MasterWriteByte(register_address);
 246              		.loc 1 110 0
 247 0010 2846     		mov	r0, r5
 248              	.LVL29:
 249 0012 FFF7FEFF 		bl	I2C_Master_MasterWriteByte
 250              	.LVL30:
 111:I2C_Interface.c ****             if (error == I2C_Master_MSTR_NO_ERROR)
 251              		.loc 1 111 0
 252 0016 0446     		mov	r4, r0
 253 0018 18B9     		cbnz	r0, .L13
 112:I2C_Interface.c ****             {
 113:I2C_Interface.c ****                 // Write byte of interest
 114:I2C_Interface.c ****                 error = I2C_Master_MasterWriteByte(data);
 254              		.loc 1 114 0
 255 001a 3046     		mov	r0, r6
 256              	.LVL31:
 257 001c FFF7FEFF 		bl	I2C_Master_MasterWriteByte
 258              	.LVL32:
 259 0020 0446     		mov	r4, r0
 260              	.LVL33:
 261              	.L13:
 115:I2C_Interface.c ****             }
 116:I2C_Interface.c ****         }
 117:I2C_Interface.c ****         // Send stop condition
 118:I2C_Interface.c ****         I2C_Master_MasterSendStop();
 262              		.loc 1 118 0
 263 0022 FFF7FEFF 		bl	I2C_Master_MasterSendStop
 264              	.LVL34:
 119:I2C_Interface.c ****         // Return error code
 120:I2C_Interface.c ****         return error ? ERROR : NO_ERROR;
 121:I2C_Interface.c ****     }
 265              		.loc 1 121 0
 266 0026 201C     		adds	r0, r4, #0
 267 0028 18BF     		it	ne
 268 002a 0120     		movne	r0, #1
 269 002c 70BD     		pop	{r4, r5, r6, pc}
 270              		.cfi_endproc
 271              	.LFE4:
 272              		.size	I2C_Peripheral_WriteRegister, .-I2C_Peripheral_WriteRegister
 273 002e 00BF     		.section	.text.I2C_Peripheral_WriteRegisterMulti,"ax",%progbits
 274              		.align	2
 275              		.global	I2C_Peripheral_WriteRegisterMulti
 276              		.thumb
 277              		.thumb_func
 278              		.type	I2C_Peripheral_WriteRegisterMulti, %function
ARM GAS  C:\Users\annat\AppData\Local\Temp\ccs4K4nN.s 			page 8


 279              	I2C_Peripheral_WriteRegisterMulti:
 280              	.LFB5:
 122:I2C_Interface.c ****     
 123:I2C_Interface.c ****     ErrorCode I2C_Peripheral_WriteRegisterMulti(uint8_t device_address,
 124:I2C_Interface.c ****                                             uint8_t register_address,
 125:I2C_Interface.c ****                                             uint8_t register_count,
 126:I2C_Interface.c ****                                             uint8_t* data)
 127:I2C_Interface.c ****     {
 281              		.loc 1 127 0
 282              		.cfi_startproc
 283              		@ args = 0, pretend = 0, frame = 0
 284              		@ frame_needed = 0, uses_anonymous_args = 0
 285              		@ link register save eliminated.
 286              	.LVL35:
 287              	.LVL36:
 128:I2C_Interface.c ****         //TODO
 129:I2C_Interface.c ****     }
 288              		.loc 1 129 0
 289 0000 7047     		bx	lr
 290              		.cfi_endproc
 291              	.LFE5:
 292              		.size	I2C_Peripheral_WriteRegisterMulti, .-I2C_Peripheral_WriteRegisterMulti
 293 0002 00BF     		.section	.text.I2C_Peripheral_IsDeviceConnected,"ax",%progbits
 294              		.align	2
 295              		.global	I2C_Peripheral_IsDeviceConnected
 296              		.thumb
 297              		.thumb_func
 298              		.type	I2C_Peripheral_IsDeviceConnected, %function
 299              	I2C_Peripheral_IsDeviceConnected:
 300              	.LFB6:
 130:I2C_Interface.c ****     
 131:I2C_Interface.c ****     
 132:I2C_Interface.c ****     uint8_t I2C_Peripheral_IsDeviceConnected(uint8_t device_address)
 133:I2C_Interface.c ****     {
 301              		.loc 1 133 0
 302              		.cfi_startproc
 303              		@ args = 0, pretend = 0, frame = 0
 304              		@ frame_needed = 0, uses_anonymous_args = 0
 305              	.LVL37:
 306 0000 10B5     		push	{r4, lr}
 307              		.cfi_def_cfa_offset 8
 308              		.cfi_offset 4, -8
 309              		.cfi_offset 14, -4
 134:I2C_Interface.c ****         // Send a start condition followed by a stop condition
 135:I2C_Interface.c ****         uint8_t error = I2C_Master_MasterSendStart(device_address, I2C_Master_WRITE_XFER_MODE);
 310              		.loc 1 135 0
 311 0002 0021     		movs	r1, #0
 312 0004 FFF7FEFF 		bl	I2C_Master_MasterSendStart
 313              	.LVL38:
 314 0008 0446     		mov	r4, r0
 315              	.LVL39:
 136:I2C_Interface.c ****         I2C_Master_MasterSendStop();
 316              		.loc 1 136 0
 317 000a FFF7FEFF 		bl	I2C_Master_MasterSendStop
 318              	.LVL40:
 137:I2C_Interface.c ****         // If no error generated during stop, device is connected
 138:I2C_Interface.c ****         if (error == I2C_Master_MSTR_NO_ERROR)
ARM GAS  C:\Users\annat\AppData\Local\Temp\ccs4K4nN.s 			page 9


 319              		.loc 1 138 0
 320 000e 0CB9     		cbnz	r4, .L18
 139:I2C_Interface.c ****         {
 140:I2C_Interface.c ****             return DEVICE_CONNECTED;
 321              		.loc 1 140 0
 322 0010 0120     		movs	r0, #1
 323 0012 10BD     		pop	{r4, pc}
 324              	.LVL41:
 325              	.L18:
 141:I2C_Interface.c ****         }
 142:I2C_Interface.c ****         return DEVICE_UNCONNECTED;
 326              		.loc 1 142 0
 327 0014 0020     		movs	r0, #0
 143:I2C_Interface.c ****     }
 328              		.loc 1 143 0
 329 0016 10BD     		pop	{r4, pc}
 330              		.cfi_endproc
 331              	.LFE6:
 332              		.size	I2C_Peripheral_IsDeviceConnected, .-I2C_Peripheral_IsDeviceConnected
 333              		.text
 334              	.Letext0:
 335              		.file 2 "c:\\program files (x86)\\cypress\\psoc creator\\4.3\\psoc creator\\import\\gnu\\arm\\5.4.
 336              		.file 3 "c:\\program files (x86)\\cypress\\psoc creator\\4.3\\psoc creator\\import\\gnu\\arm\\5.4.
 337              		.file 4 "ErrorCodes.h"
 338              		.file 5 "Generated_Source\\PSoC5/I2C_Master.h"