ARM GAS  C:\Users\annat\AppData\Local\Temp\ccGmgyVQ.s 			page 1


   1              		.syntax unified
   2              		.cpu cortex-m3
   3              		.fpu softvfp
   4              		.eabi_attribute 20, 1
   5              		.eabi_attribute 21, 1
   6              		.eabi_attribute 23, 3
   7              		.eabi_attribute 24, 1
   8              		.eabi_attribute 25, 1
   9              		.eabi_attribute 26, 1
  10              		.eabi_attribute 30, 1
  11              		.eabi_attribute 34, 1
  12              		.eabi_attribute 18, 4
  13              		.thumb
  14              		.syntax unified
  15              		.file	"InterruptRoutines.c"
  16              		.text
  17              	.Ltext0:
  18              		.cfi_sections	.debug_frame
  19              		.global	__aeabi_fsub
  20              		.global	__aeabi_i2f
  21              		.global	__aeabi_fmul
  22              		.global	__aeabi_fdiv
  23              		.global	__aeabi_fadd
  24              		.global	__aeabi_f2iz
  25              		.section	.text.Scaler,"ax",%progbits
  26              		.align	2
  27              		.global	Scaler
  28              		.thumb
  29              		.thumb_func
  30              		.type	Scaler, %function
  31              	Scaler:
  32              	.LFB65:
  33              		.file 1 "InterruptRoutines.c"
   1:InterruptRoutines.c **** /* ========================================
   2:InterruptRoutines.c ****  *
   3:InterruptRoutines.c ****  * Copyright YOUR COMPANY, THE YEAR
   4:InterruptRoutines.c ****  * All Rights Reserved
   5:InterruptRoutines.c ****  * UNPUBLISHED, LICENSED SOFTWARE.
   6:InterruptRoutines.c ****  *
   7:InterruptRoutines.c ****  * CONFIDENTIAL AND PROPRIETARY INFORMATION
   8:InterruptRoutines.c ****  * WHICH IS THE PROPERTY OF your company.
   9:InterruptRoutines.c ****  *
  10:InterruptRoutines.c ****  * ========================================
  11:InterruptRoutines.c **** */
  12:InterruptRoutines.c **** #include "InterruptRoutines.h"
  13:InterruptRoutines.c **** #include "project.h"
  14:InterruptRoutines.c **** 
  15:InterruptRoutines.c **** /*the Scaler function returns a 32-bit integer because 16 bit are not sufficient to
  16:InterruptRoutines.c ****   cast a floating point to an integer keeping 3 or more decimals*/
  17:InterruptRoutines.c **** int32 Scaler(int min, int max, float a, float b, int x);
  18:InterruptRoutines.c **** 
  19:InterruptRoutines.c **** CY_ISR(CUSTOM_ISR_TIMER){
  20:InterruptRoutines.c ****         Timer_ReadStatusRegister();
  21:InterruptRoutines.c ****         error = I2C_Peripheral_ReadRegister(LIS3DH_DEVICE_ADDRESS,
  22:InterruptRoutines.c ****                                         LIS3DH_STATUS_REG,
  23:InterruptRoutines.c ****                                         &status_register);
  24:InterruptRoutines.c ****         
ARM GAS  C:\Users\annat\AppData\Local\Temp\ccGmgyVQ.s 			page 2


  25:InterruptRoutines.c ****         if(error == NO_ERROR){
  26:InterruptRoutines.c ****             if((status_register & 0b00001000) > 0){ //check  if new data is available
  27:InterruptRoutines.c ****                 
  28:InterruptRoutines.c ****                 //READ X-AXIS VALUE
  29:InterruptRoutines.c ****                 error = I2C_Peripheral_ReadRegisterMulti(LIS3DH_DEVICE_ADDRESS,
  30:InterruptRoutines.c ****                                                     LIS3DH_OUT_X_L,
  31:InterruptRoutines.c ****                                                     2,
  32:InterruptRoutines.c ****                                                     &Acc_xData[0]);
  33:InterruptRoutines.c ****                 if(error == NO_ERROR){ 
  34:InterruptRoutines.c ****                     //In high resolution mode the data output is a 12-bit value
  35:InterruptRoutines.c ****                     Accelerometer_x = (int16)((Acc_xData[0] | (Acc_xData[1]<<8)))>>4;
  36:InterruptRoutines.c ****                     x_acceleration = Scaler(OLD_MAX, OLD_MIN, NEW_MAX*G_CONSTANT, NEW_MIN*G_CONSTAN
  37:InterruptRoutines.c ****                     
  38:InterruptRoutines.c ****                     OutArray[1] = x_acceleration & 0xFF;//LSB
  39:InterruptRoutines.c ****                     OutArray[2] = (x_acceleration >> 8) & 0xFF;
  40:InterruptRoutines.c ****                     OutArray[3] = (x_acceleration >> 16)&0xFF;
  41:InterruptRoutines.c ****                     OutArray[4] = x_acceleration >> 24; //MSB
  42:InterruptRoutines.c ****                     
  43:InterruptRoutines.c ****                  }else{
  44:InterruptRoutines.c ****                     UART_Debug_PutString("Error occurred during I2C comm to read OUT_X_L and OUT_X_
  45:InterruptRoutines.c ****                  }
  46:InterruptRoutines.c ****                 
  47:InterruptRoutines.c ****                 //READ Y-AXIS VALUE
  48:InterruptRoutines.c ****                 error = I2C_Peripheral_ReadRegisterMulti(LIS3DH_DEVICE_ADDRESS,
  49:InterruptRoutines.c ****                                                     LIS3DH_OUT_Y_L,
  50:InterruptRoutines.c ****                                                     2,
  51:InterruptRoutines.c ****                                                     &Acc_yData[0]);
  52:InterruptRoutines.c ****                 if(error == NO_ERROR){ 
  53:InterruptRoutines.c ****                     Accelerometer_y = (int16)((Acc_yData[0] | (Acc_yData[1]<<8)))>>4;
  54:InterruptRoutines.c ****                     y_acceleration = Scaler(OLD_MAX, OLD_MIN, NEW_MAX*G_CONSTANT, NEW_MIN*G_CONSTAN
  55:InterruptRoutines.c ****                     
  56:InterruptRoutines.c ****                     OutArray[5] = y_acceleration & 0xFF;//LSB
  57:InterruptRoutines.c ****                     OutArray[6] = (y_acceleration >> 8) & 0xFF;
  58:InterruptRoutines.c ****                     OutArray[7] = (y_acceleration >> 16)&0xFF;
  59:InterruptRoutines.c ****                     OutArray[8] = y_acceleration >> 24;//MSB
  60:InterruptRoutines.c ****                     
  61:InterruptRoutines.c ****                 }else{
  62:InterruptRoutines.c ****                     UART_Debug_PutString("Error occurred during I2C comm to read OUT_Y_L and OUT_Y_
  63:InterruptRoutines.c ****                  }
  64:InterruptRoutines.c ****                 
  65:InterruptRoutines.c ****                 //READ Z-AXIS VALUE
  66:InterruptRoutines.c ****                 error = I2C_Peripheral_ReadRegisterMulti(LIS3DH_DEVICE_ADDRESS,
  67:InterruptRoutines.c ****                                                     LIS3DH_OUT_Z_L,
  68:InterruptRoutines.c ****                                                     2,
  69:InterruptRoutines.c ****                                                     &Acc_zData[0]);
  70:InterruptRoutines.c ****                 if(error == NO_ERROR){
  71:InterruptRoutines.c ****                     Accelerometer_z = (int16)((Acc_zData[0] | (Acc_zData[1]<<8)))>>4;
  72:InterruptRoutines.c ****                     z_acceleration = Scaler(OLD_MAX, OLD_MIN, NEW_MAX*G_CONSTANT, NEW_MIN*G_CONSTAN
  73:InterruptRoutines.c **** 
  74:InterruptRoutines.c ****                     OutArray[9] = z_acceleration & 0xFF;//LSB
  75:InterruptRoutines.c ****                     OutArray[10] = (z_acceleration >> 8) & 0xFF;
  76:InterruptRoutines.c ****                     OutArray[11] = (z_acceleration >> 16)&0xFF;
  77:InterruptRoutines.c ****                     OutArray[12] = z_acceleration >> 24;//MSB
  78:InterruptRoutines.c ****                     
  79:InterruptRoutines.c ****                     FlagPacketReady = 1;//the packet is ready to be sent
  80:InterruptRoutines.c ****                     
  81:InterruptRoutines.c ****                 }else{
ARM GAS  C:\Users\annat\AppData\Local\Temp\ccGmgyVQ.s 			page 3


  82:InterruptRoutines.c ****                     UART_Debug_PutString("Error occurred during I2C comm to read OUT_Z_L and OUT_Z_
  83:InterruptRoutines.c ****                  }
  84:InterruptRoutines.c ****             }
  85:InterruptRoutines.c ****         }else{
  86:InterruptRoutines.c ****             UART_Debug_PutString("Error occurred during I2C comm to read control register\r\n");   
  87:InterruptRoutines.c ****         }
  88:InterruptRoutines.c **** }
  89:InterruptRoutines.c **** 
  90:InterruptRoutines.c **** int32 Scaler(int max, int min, float b, float a, int x){
  34              		.loc 1 90 0
  35              		.cfi_startproc
  36              		@ args = 4, pretend = 0, frame = 0
  37              		@ frame_needed = 0, uses_anonymous_args = 0
  38              	.LVL0:
  39 0000 2DE9F041 		push	{r4, r5, r6, r7, r8, lr}
  40              		.cfi_def_cfa_offset 24
  41              		.cfi_offset 4, -24
  42              		.cfi_offset 5, -20
  43              		.cfi_offset 6, -16
  44              		.cfi_offset 7, -12
  45              		.cfi_offset 8, -8
  46              		.cfi_offset 14, -4
  47 0004 0746     		mov	r7, r0
  48 0006 0E46     		mov	r6, r1
  49 0008 1D46     		mov	r5, r3
  91:InterruptRoutines.c ****     //scaling the values from digit to m/(s^2) and multiplying by 10000 to keep 4 decimal.
  92:InterruptRoutines.c ****     return ((((x-min)*(b-a))/(max-min))+a)*10000;
  50              		.loc 1 92 0
  51 000a 0698     		ldr	r0, [sp, #24]
  52              	.LVL1:
  53 000c 441A     		subs	r4, r0, r1
  54 000e 1946     		mov	r1, r3
  55              	.LVL2:
  56 0010 1046     		mov	r0, r2
  57 0012 FFF7FEFF 		bl	__aeabi_fsub
  58              	.LVL3:
  59 0016 8046     		mov	r8, r0
  60 0018 2046     		mov	r0, r4
  61 001a FFF7FEFF 		bl	__aeabi_i2f
  62              	.LVL4:
  63 001e 4146     		mov	r1, r8
  64 0020 FFF7FEFF 		bl	__aeabi_fmul
  65              	.LVL5:
  66 0024 0446     		mov	r4, r0
  67 0026 B81B     		subs	r0, r7, r6
  68 0028 FFF7FEFF 		bl	__aeabi_i2f
  69              	.LVL6:
  70 002c 0146     		mov	r1, r0
  71 002e 2046     		mov	r0, r4
  72 0030 FFF7FEFF 		bl	__aeabi_fdiv
  73              	.LVL7:
  74 0034 0146     		mov	r1, r0
  75 0036 2846     		mov	r0, r5
  76 0038 FFF7FEFF 		bl	__aeabi_fadd
  77              	.LVL8:
  78 003c 0349     		ldr	r1, .L3
  79 003e FFF7FEFF 		bl	__aeabi_fmul
ARM GAS  C:\Users\annat\AppData\Local\Temp\ccGmgyVQ.s 			page 4


  80              	.LVL9:
  81 0042 FFF7FEFF 		bl	__aeabi_f2iz
  82              	.LVL10:
  93:InterruptRoutines.c **** }
  83              		.loc 1 93 0
  84 0046 BDE8F081 		pop	{r4, r5, r6, r7, r8, pc}
  85              	.LVL11:
  86              	.L4:
  87 004a 00BF     		.align	2
  88              	.L3:
  89 004c 00401C46 		.word	1176256512
  90              		.cfi_endproc
  91              	.LFE65:
  92              		.size	Scaler, .-Scaler
  93              		.section	.text.CUSTOM_ISR_TIMER,"ax",%progbits
  94              		.align	2
  95              		.global	CUSTOM_ISR_TIMER
  96              		.thumb
  97              		.thumb_func
  98              		.type	CUSTOM_ISR_TIMER, %function
  99              	CUSTOM_ISR_TIMER:
 100              	.LFB64:
  19:InterruptRoutines.c ****         Timer_ReadStatusRegister();
 101              		.loc 1 19 0
 102              		.cfi_startproc
 103              		@ args = 0, pretend = 0, frame = 0
 104              		@ frame_needed = 0, uses_anonymous_args = 0
 105 0000 00B5     		push	{lr}
 106              		.cfi_def_cfa_offset 4
 107              		.cfi_offset 14, -4
 108 0002 83B0     		sub	sp, sp, #12
 109              		.cfi_def_cfa_offset 16
  20:InterruptRoutines.c ****         error = I2C_Peripheral_ReadRegister(LIS3DH_DEVICE_ADDRESS,
 110              		.loc 1 20 0
 111 0004 FFF7FEFF 		bl	Timer_ReadStatusRegister
 112              	.LVL12:
  21:InterruptRoutines.c ****                                         LIS3DH_STATUS_REG,
 113              		.loc 1 21 0
 114 0008 484A     		ldr	r2, .L14
 115 000a 2721     		movs	r1, #39
 116 000c 1820     		movs	r0, #24
 117 000e FFF7FEFF 		bl	I2C_Peripheral_ReadRegister
 118              	.LVL13:
 119 0012 474B     		ldr	r3, .L14+4
 120 0014 1870     		strb	r0, [r3]
  25:InterruptRoutines.c ****             if((status_register & 0b00001000) > 0){ //check  if new data is available
 121              		.loc 1 25 0
 122 0016 0028     		cmp	r0, #0
 123 0018 40F08180 		bne	.L6
  26:InterruptRoutines.c ****                 
 124              		.loc 1 26 0
 125 001c 434B     		ldr	r3, .L14
 126 001e 1B78     		ldrb	r3, [r3]	@ zero_extendqisi2
 127 0020 13F0080F 		tst	r3, #8
 128 0024 7ED0     		beq	.L5
  29:InterruptRoutines.c ****                                                     LIS3DH_OUT_X_L,
 129              		.loc 1 29 0
ARM GAS  C:\Users\annat\AppData\Local\Temp\ccGmgyVQ.s 			page 5


 130 0026 434B     		ldr	r3, .L14+8
 131 0028 0222     		movs	r2, #2
 132 002a 2821     		movs	r1, #40
 133 002c 1820     		movs	r0, #24
 134 002e FFF7FEFF 		bl	I2C_Peripheral_ReadRegisterMulti
 135              	.LVL14:
 136 0032 3F4B     		ldr	r3, .L14+4
 137 0034 1870     		strb	r0, [r3]
  33:InterruptRoutines.c ****                     //In high resolution mode the data output is a 12-bit value
 138              		.loc 1 33 0
 139 0036 D8B9     		cbnz	r0, .L8
  35:InterruptRoutines.c ****                     x_acceleration = Scaler(OLD_MAX, OLD_MIN, NEW_MAX*G_CONSTANT, NEW_MIN*G_CONSTAN
 140              		.loc 1 35 0
 141 0038 3E4A     		ldr	r2, .L14+8
 142 003a 1378     		ldrb	r3, [r2]	@ zero_extendqisi2
 143 003c 5278     		ldrb	r2, [r2, #1]	@ zero_extendqisi2
 144 003e 43EA0223 		orr	r3, r3, r2, lsl #8
 145 0042 43F30B13 		sbfx	r3, r3, #4, #12
 146 0046 3C4A     		ldr	r2, .L14+12
 147 0048 1380     		strh	r3, [r2]	@ movhi
  36:InterruptRoutines.c ****                     
 148              		.loc 1 36 0
 149 004a 0093     		str	r3, [sp]
 150 004c 3B4B     		ldr	r3, .L14+16
 151 004e 3C4A     		ldr	r2, .L14+20
 152 0050 3C49     		ldr	r1, .L14+24
 153 0052 4FF40060 		mov	r0, #2048
 154 0056 FFF7FEFF 		bl	Scaler
 155              	.LVL15:
 156 005a 3B4B     		ldr	r3, .L14+28
 157 005c 1860     		str	r0, [r3]
  38:InterruptRoutines.c ****                     OutArray[2] = (x_acceleration >> 8) & 0xFF;
 158              		.loc 1 38 0
 159 005e 3B4B     		ldr	r3, .L14+32
 160 0060 5870     		strb	r0, [r3, #1]
  39:InterruptRoutines.c ****                     OutArray[3] = (x_acceleration >> 16)&0xFF;
 161              		.loc 1 39 0
 162 0062 0212     		asrs	r2, r0, #8
 163 0064 9A70     		strb	r2, [r3, #2]
  40:InterruptRoutines.c ****                     OutArray[4] = x_acceleration >> 24; //MSB
 164              		.loc 1 40 0
 165 0066 0214     		asrs	r2, r0, #16
 166 0068 DA70     		strb	r2, [r3, #3]
  41:InterruptRoutines.c ****                     
 167              		.loc 1 41 0
 168 006a 0016     		asrs	r0, r0, #24
 169 006c 1871     		strb	r0, [r3, #4]
 170 006e 02E0     		b	.L9
 171              	.L8:
  44:InterruptRoutines.c ****                  }
 172              		.loc 1 44 0
 173 0070 3748     		ldr	r0, .L14+36
 174 0072 FFF7FEFF 		bl	UART_Debug_PutString
 175              	.LVL16:
 176              	.L9:
  48:InterruptRoutines.c ****                                                     LIS3DH_OUT_Y_L,
 177              		.loc 1 48 0
ARM GAS  C:\Users\annat\AppData\Local\Temp\ccGmgyVQ.s 			page 6


 178 0076 374B     		ldr	r3, .L14+40
 179 0078 0222     		movs	r2, #2
 180 007a 2A21     		movs	r1, #42
 181 007c 1820     		movs	r0, #24
 182 007e FFF7FEFF 		bl	I2C_Peripheral_ReadRegisterMulti
 183              	.LVL17:
 184 0082 2B4B     		ldr	r3, .L14+4
 185 0084 1870     		strb	r0, [r3]
  52:InterruptRoutines.c ****                     Accelerometer_y = (int16)((Acc_yData[0] | (Acc_yData[1]<<8)))>>4;
 186              		.loc 1 52 0
 187 0086 D8B9     		cbnz	r0, .L10
  53:InterruptRoutines.c ****                     y_acceleration = Scaler(OLD_MAX, OLD_MIN, NEW_MAX*G_CONSTANT, NEW_MIN*G_CONSTAN
 188              		.loc 1 53 0
 189 0088 324A     		ldr	r2, .L14+40
 190 008a 1378     		ldrb	r3, [r2]	@ zero_extendqisi2
 191 008c 5278     		ldrb	r2, [r2, #1]	@ zero_extendqisi2
 192 008e 43EA0223 		orr	r3, r3, r2, lsl #8
 193 0092 43F30B13 		sbfx	r3, r3, #4, #12
 194 0096 304A     		ldr	r2, .L14+44
 195 0098 1380     		strh	r3, [r2]	@ movhi
  54:InterruptRoutines.c ****                     
 196              		.loc 1 54 0
 197 009a 0093     		str	r3, [sp]
 198 009c 274B     		ldr	r3, .L14+16
 199 009e 284A     		ldr	r2, .L14+20
 200 00a0 2849     		ldr	r1, .L14+24
 201 00a2 4FF40060 		mov	r0, #2048
 202 00a6 FFF7FEFF 		bl	Scaler
 203              	.LVL18:
 204 00aa 2C4B     		ldr	r3, .L14+48
 205 00ac 1860     		str	r0, [r3]
  56:InterruptRoutines.c ****                     OutArray[6] = (y_acceleration >> 8) & 0xFF;
 206              		.loc 1 56 0
 207 00ae 274B     		ldr	r3, .L14+32
 208 00b0 5871     		strb	r0, [r3, #5]
  57:InterruptRoutines.c ****                     OutArray[7] = (y_acceleration >> 16)&0xFF;
 209              		.loc 1 57 0
 210 00b2 0212     		asrs	r2, r0, #8
 211 00b4 9A71     		strb	r2, [r3, #6]
  58:InterruptRoutines.c ****                     OutArray[8] = y_acceleration >> 24;//MSB
 212              		.loc 1 58 0
 213 00b6 0214     		asrs	r2, r0, #16
 214 00b8 DA71     		strb	r2, [r3, #7]
  59:InterruptRoutines.c ****                     
 215              		.loc 1 59 0
 216 00ba 0016     		asrs	r0, r0, #24
 217 00bc 1872     		strb	r0, [r3, #8]
 218 00be 02E0     		b	.L11
 219              	.L10:
  62:InterruptRoutines.c ****                  }
 220              		.loc 1 62 0
 221 00c0 2748     		ldr	r0, .L14+52
 222 00c2 FFF7FEFF 		bl	UART_Debug_PutString
 223              	.LVL19:
 224              	.L11:
  66:InterruptRoutines.c ****                                                     LIS3DH_OUT_Z_L,
 225              		.loc 1 66 0
ARM GAS  C:\Users\annat\AppData\Local\Temp\ccGmgyVQ.s 			page 7


 226 00c6 274B     		ldr	r3, .L14+56
 227 00c8 0222     		movs	r2, #2
 228 00ca 2C21     		movs	r1, #44
 229 00cc 1820     		movs	r0, #24
 230 00ce FFF7FEFF 		bl	I2C_Peripheral_ReadRegisterMulti
 231              	.LVL20:
 232 00d2 174B     		ldr	r3, .L14+4
 233 00d4 1870     		strb	r0, [r3]
  70:InterruptRoutines.c ****                     Accelerometer_z = (int16)((Acc_zData[0] | (Acc_zData[1]<<8)))>>4;
 234              		.loc 1 70 0
 235 00d6 F0B9     		cbnz	r0, .L12
  71:InterruptRoutines.c ****                     z_acceleration = Scaler(OLD_MAX, OLD_MIN, NEW_MAX*G_CONSTANT, NEW_MIN*G_CONSTAN
 236              		.loc 1 71 0
 237 00d8 224A     		ldr	r2, .L14+56
 238 00da 1378     		ldrb	r3, [r2]	@ zero_extendqisi2
 239 00dc 5278     		ldrb	r2, [r2, #1]	@ zero_extendqisi2
 240 00de 43EA0223 		orr	r3, r3, r2, lsl #8
 241 00e2 43F30B13 		sbfx	r3, r3, #4, #12
 242 00e6 204A     		ldr	r2, .L14+60
 243 00e8 1380     		strh	r3, [r2]	@ movhi
  72:InterruptRoutines.c **** 
 244              		.loc 1 72 0
 245 00ea 0093     		str	r3, [sp]
 246 00ec 134B     		ldr	r3, .L14+16
 247 00ee 144A     		ldr	r2, .L14+20
 248 00f0 1449     		ldr	r1, .L14+24
 249 00f2 4FF40060 		mov	r0, #2048
 250 00f6 FFF7FEFF 		bl	Scaler
 251              	.LVL21:
 252 00fa 1C4B     		ldr	r3, .L14+64
 253 00fc 1860     		str	r0, [r3]
  74:InterruptRoutines.c ****                     OutArray[10] = (z_acceleration >> 8) & 0xFF;
 254              		.loc 1 74 0
 255 00fe 134B     		ldr	r3, .L14+32
 256 0100 5872     		strb	r0, [r3, #9]
  75:InterruptRoutines.c ****                     OutArray[11] = (z_acceleration >> 16)&0xFF;
 257              		.loc 1 75 0
 258 0102 0212     		asrs	r2, r0, #8
 259 0104 9A72     		strb	r2, [r3, #10]
  76:InterruptRoutines.c ****                     OutArray[12] = z_acceleration >> 24;//MSB
 260              		.loc 1 76 0
 261 0106 0214     		asrs	r2, r0, #16
 262 0108 DA72     		strb	r2, [r3, #11]
  77:InterruptRoutines.c ****                     
 263              		.loc 1 77 0
 264 010a 0016     		asrs	r0, r0, #24
 265 010c 1873     		strb	r0, [r3, #12]
  79:InterruptRoutines.c ****                     
 266              		.loc 1 79 0
 267 010e 0122     		movs	r2, #1
 268 0110 174B     		ldr	r3, .L14+68
 269 0112 1A70     		strb	r2, [r3]
 270 0114 06E0     		b	.L5
 271              	.L12:
  82:InterruptRoutines.c ****                  }
 272              		.loc 1 82 0
 273 0116 1748     		ldr	r0, .L14+72
ARM GAS  C:\Users\annat\AppData\Local\Temp\ccGmgyVQ.s 			page 8


 274 0118 FFF7FEFF 		bl	UART_Debug_PutString
 275              	.LVL22:
 276 011c 02E0     		b	.L5
 277              	.L6:
  86:InterruptRoutines.c ****         }
 278              		.loc 1 86 0
 279 011e 1648     		ldr	r0, .L14+76
 280 0120 FFF7FEFF 		bl	UART_Debug_PutString
 281              	.LVL23:
 282              	.L5:
  88:InterruptRoutines.c **** 
 283              		.loc 1 88 0
 284 0124 03B0     		add	sp, sp, #12
 285              		.cfi_def_cfa_offset 4
 286              		@ sp needed
 287 0126 5DF804FB 		ldr	pc, [sp], #4
 288              	.L15:
 289 012a 00BF     		.align	2
 290              	.L14:
 291 012c 00000000 		.word	status_register
 292 0130 00000000 		.word	error
 293 0134 00000000 		.word	Acc_xData
 294 0138 00000000 		.word	Accelerometer_x
 295 013c C3F51CC2 		.word	-1038289469
 296 0140 C3F51C42 		.word	1109194179
 297 0144 00F8FFFF 		.word	-2048
 298 0148 00000000 		.word	x_acceleration
 299 014c 00000000 		.word	OutArray
 300 0150 00000000 		.word	.LC0
 301 0154 00000000 		.word	Acc_yData
 302 0158 00000000 		.word	Accelerometer_y
 303 015c 00000000 		.word	y_acceleration
 304 0160 48000000 		.word	.LC1
 305 0164 00000000 		.word	Acc_zData
 306 0168 00000000 		.word	Accelerometer_z
 307 016c 00000000 		.word	z_acceleration
 308 0170 00000000 		.word	FlagPacketReady
 309 0174 90000000 		.word	.LC2
 310 0178 D8000000 		.word	.LC3
 311              		.cfi_endproc
 312              	.LFE64:
 313              		.size	CUSTOM_ISR_TIMER, .-CUSTOM_ISR_TIMER
 314              		.comm	FlagPacketReady,1,1
 315              		.comm	OutArray,14,4
 316              		.comm	z_acceleration,4,4
 317              		.comm	y_acceleration,4,4
 318              		.comm	x_acceleration,4,4
 319              		.comm	Accelerometer_z,2,2
 320              		.comm	Accelerometer_y,2,2
 321              		.comm	Accelerometer_x,2,2
 322              		.comm	Acc_zData,2,4
 323              		.comm	Acc_yData,2,4
 324              		.comm	Acc_xData,2,4
 325              		.comm	status_register,1,1
 326              		.comm	error,1,1
 327              		.section	.rodata.str1.4,"aMS",%progbits,1
 328              		.align	2
ARM GAS  C:\Users\annat\AppData\Local\Temp\ccGmgyVQ.s 			page 9


 329              	.LC0:
 330 0000 4572726F 		.ascii	"Error occurred during I2C comm to read OUT_X_L and "
 330      72206F63 
 330      63757272 
 330      65642064 
 330      7572696E 
 331 0033 4F55545F 		.ascii	"OUT_X_H registers\015\012\000"
 331      585F4820 
 331      72656769 
 331      73746572 
 331      730D0A00 
 332 0047 00       		.space	1
 333              	.LC1:
 334 0048 4572726F 		.ascii	"Error occurred during I2C comm to read OUT_Y_L and "
 334      72206F63 
 334      63757272 
 334      65642064 
 334      7572696E 
 335 007b 4F55545F 		.ascii	"OUT_Y_H registers\015\012\000"
 335      595F4820 
 335      72656769 
 335      73746572 
 335      730D0A00 
 336 008f 00       		.space	1
 337              	.LC2:
 338 0090 4572726F 		.ascii	"Error occurred during I2C comm to read OUT_Z_L and "
 338      72206F63 
 338      63757272 
 338      65642064 
 338      7572696E 
 339 00c3 4F55545F 		.ascii	"OUT_Z_H registers\015\012\000"
 339      5A5F4820 
 339      72656769 
 339      73746572 
 339      730D0A00 
 340 00d7 00       		.space	1
 341              	.LC3:
 342 00d8 4572726F 		.ascii	"Error occurred during I2C comm to read control regi"
 342      72206F63 
 342      63757272 
 342      65642064 
 342      7572696E 
 343 010b 73746572 		.ascii	"ster\015\012\000"
 343      0D0A00
 344              		.text
 345              	.Letext0:
 346              		.file 2 "c:\\program files (x86)\\cypress\\psoc creator\\4.3\\psoc creator\\import\\gnu\\arm\\5.4.
 347              		.file 3 "c:\\program files (x86)\\cypress\\psoc creator\\4.3\\psoc creator\\import\\gnu\\arm\\5.4.
 348              		.file 4 "Generated_Source\\PSoC5/cytypes.h"
 349              		.file 5 "ErrorCodes.h"
 350              		.file 6 "InterruptRoutines.h"
 351              		.file 7 "Generated_Source\\PSoC5/core_cm3.h"
 352              		.file 8 "Generated_Source\\PSoC5/Timer.h"
 353              		.file 9 "I2C_Interface.h"
 354              		.file 10 "Generated_Source\\PSoC5/UART_Debug.h"