ARM GAS  C:\Users\annat\AppData\Local\Temp\ccX9orGc.s 			page 1


   1              		.syntax unified
   2              		.cpu cortex-m3
   3              		.fpu softvfp
   4              		.eabi_attribute 20, 1
   5              		.eabi_attribute 21, 1
   6              		.eabi_attribute 23, 3
   7              		.eabi_attribute 24, 1
   8              		.eabi_attribute 25, 1
   9              		.eabi_attribute 26, 1
  10              		.eabi_attribute 30, 1
  11              		.eabi_attribute 34, 1
  12              		.eabi_attribute 18, 4
  13              		.thumb
  14              		.syntax unified
  15              		.file	"main.c"
  16              		.text
  17              	.Ltext0:
  18              		.cfi_sections	.debug_frame
  19              		.section	.text.main,"ax",%progbits
  20              		.align	2
  21              		.global	main
  22              		.thumb
  23              		.thumb_func
  24              		.type	main, %function
  25              	main:
  26              	.LFB64:
  27              		.file 1 "main.c"
   1:main.c        **** /**
   2:main.c        **** * \brief Main source file for the I2C-Master project.
   3:main.c        **** *
   4:main.c        **** * In this project we set up a I2C master device with
   5:main.c        **** * to understand the I2C protocol and communicate with a
   6:main.c        **** * a I2C Slave device (LIS3DH Accelerometer).
   7:main.c        **** *
   8:main.c        **** * \author Gabriele Belotti
   9:main.c        **** * \date , 2020
  10:main.c        **** */
  11:main.c        **** 
  12:main.c        **** // Include required header files
  13:main.c        **** #include "InterruptRoutines.h"
  14:main.c        **** #include "project.h"
  15:main.c        **** #include "stdio.h"
  16:main.c        **** 
  17:main.c        **** 
  18:main.c        **** 
  19:main.c        **** int main(void)
  20:main.c        **** {
  28              		.loc 1 20 0
  29              		.cfi_startproc
  30              		@ args = 0, pretend = 0, frame = 56
  31              		@ frame_needed = 0, uses_anonymous_args = 0
  32 0000 30B5     		push	{r4, r5, lr}
  33              		.cfi_def_cfa_offset 12
  34              		.cfi_offset 4, -12
  35              		.cfi_offset 5, -8
  36              		.cfi_offset 14, -4
  37 0002 8FB0     		sub	sp, sp, #60
ARM GAS  C:\Users\annat\AppData\Local\Temp\ccX9orGc.s 			page 2


  38              		.cfi_def_cfa_offset 72
  21:main.c        ****     CyGlobalIntEnable; /* Enable global interrupts. */
  39              		.loc 1 21 0
  40              		.syntax unified
  41              	@ 21 "main.c" 1
  42 0004 62B6     		CPSIE   i
  43              	@ 0 "" 2
  22:main.c        **** 
  23:main.c        ****     /* Place your initialization/startup code here (e.g. MyInst_Start()) */
  24:main.c        ****     I2C_Peripheral_Start();
  44              		.loc 1 24 0
  45              		.thumb
  46              		.syntax unified
  47 0006 FFF7FEFF 		bl	I2C_Peripheral_Start
  48              	.LVL0:
  25:main.c        ****     UART_Debug_Start();
  49              		.loc 1 25 0
  50 000a FFF7FEFF 		bl	UART_Debug_Start
  51              	.LVL1:
  26:main.c        ****     Timer_Start();
  52              		.loc 1 26 0
  53 000e FFF7FEFF 		bl	Timer_Start
  54              	.LVL2:
  27:main.c        ****     TIMER_isr_StartEx(CUSTOM_ISR_TIMER);
  55              		.loc 1 27 0
  56 0012 9748     		ldr	r0, .L28
  57 0014 FFF7FEFF 		bl	TIMER_isr_StartEx
  58              	.LVL3:
  28:main.c        ****     FlagPacketReady = 0;
  59              		.loc 1 28 0
  60 0018 0024     		movs	r4, #0
  61 001a 964B     		ldr	r3, .L28+4
  62 001c 1C70     		strb	r4, [r3]
  29:main.c        ****     
  30:main.c        ****     CyDelay(5); //"The boot procedure is complete about 5 milliseconds after device power-up."
  63              		.loc 1 30 0
  64 001e 0520     		movs	r0, #5
  65 0020 FFF7FEFF 		bl	CyDelay
  66              	.LVL4:
  67              	.LBB2:
  31:main.c        ****     
  32:main.c        ****     // String to print out messages on the UART
  33:main.c        ****     char message[50];
  34:main.c        ****    
  35:main.c        ****     // Check which devices are present on the I2C bus
  36:main.c        ****     for (int i = 0 ; i < 128; i++)
  68              		.loc 1 36 0
  69 0024 0CE0     		b	.L2
  70              	.LVL5:
  71              	.L4:
  37:main.c        ****     {
  38:main.c        ****         if (I2C_Peripheral_IsDeviceConnected(i))
  72              		.loc 1 38 0
  73 0026 E0B2     		uxtb	r0, r4
  74 0028 FFF7FEFF 		bl	I2C_Peripheral_IsDeviceConnected
  75              	.LVL6:
  76 002c 38B1     		cbz	r0, .L3
ARM GAS  C:\Users\annat\AppData\Local\Temp\ccX9orGc.s 			page 3


  39:main.c        ****         {
  40:main.c        ****             // print out the address is hex format
  41:main.c        ****             sprintf(message, "Device 0x%02X is connected\r\n", i);
  77              		.loc 1 41 0
  78 002e 2246     		mov	r2, r4
  79 0030 9149     		ldr	r1, .L28+8
  80 0032 01A8     		add	r0, sp, #4
  81 0034 FFF7FEFF 		bl	sprintf
  82              	.LVL7:
  42:main.c        ****             UART_Debug_PutString(message); 
  83              		.loc 1 42 0
  84 0038 01A8     		add	r0, sp, #4
  85 003a FFF7FEFF 		bl	UART_Debug_PutString
  86              	.LVL8:
  87              	.L3:
  36:main.c        ****     {
  88              		.loc 1 36 0 discriminator 2
  89 003e 0134     		adds	r4, r4, #1
  90              	.LVL9:
  91              	.L2:
  36:main.c        ****     {
  92              		.loc 1 36 0 is_stmt 0 discriminator 1
  93 0040 7F2C     		cmp	r4, #127
  94 0042 F0DD     		ble	.L4
  95              	.LBE2:
  43:main.c        ****         }
  44:main.c        ****         
  45:main.c        ****     }
  46:main.c        ****     
  47:main.c        ****     /******************************************/
  48:main.c        ****     /*            I2C Reading                 */
  49:main.c        ****     /******************************************/
  50:main.c        ****     
  51:main.c        ****     /* Read WHO AM I REGISTER register */
  52:main.c        ****     uint8_t who_am_i_reg;
  53:main.c        ****     error = I2C_Peripheral_ReadRegister(LIS3DH_DEVICE_ADDRESS,
  96              		.loc 1 53 0 is_stmt 1
  97 0044 0DF10302 		add	r2, sp, #3
  98 0048 0F21     		movs	r1, #15
  99 004a 1820     		movs	r0, #24
 100 004c FFF7FEFF 		bl	I2C_Peripheral_ReadRegister
 101              	.LVL10:
 102 0050 8A4B     		ldr	r3, .L28+12
 103 0052 1870     		strb	r0, [r3]
  54:main.c        ****                                                   LIS3DH_WHO_AM_I_REG_ADDR, 
  55:main.c        ****                                                   &who_am_i_reg);
  56:main.c        ****     if (error == NO_ERROR)
 104              		.loc 1 56 0
 105 0054 48B9     		cbnz	r0, .L5
  57:main.c        ****     {
  58:main.c        ****         sprintf(message, "WHO AM I REG: 0x%02X [Expected: 0x33]\r\n", who_am_i_reg);
 106              		.loc 1 58 0
 107 0056 9DF80320 		ldrb	r2, [sp, #3]	@ zero_extendqisi2
 108 005a 8949     		ldr	r1, .L28+16
 109 005c 01A8     		add	r0, sp, #4
 110 005e FFF7FEFF 		bl	sprintf
 111              	.LVL11:
ARM GAS  C:\Users\annat\AppData\Local\Temp\ccX9orGc.s 			page 4


  59:main.c        ****         UART_Debug_PutString(message); 
 112              		.loc 1 59 0
 113 0062 01A8     		add	r0, sp, #4
 114 0064 FFF7FEFF 		bl	UART_Debug_PutString
 115              	.LVL12:
 116 0068 02E0     		b	.L6
 117              	.L5:
  60:main.c        ****     }
  61:main.c        ****     else
  62:main.c        ****     {
  63:main.c        ****         UART_Debug_PutString("Error occurred during I2C comm\r\n");   
 118              		.loc 1 63 0
 119 006a 8648     		ldr	r0, .L28+20
 120 006c FFF7FEFF 		bl	UART_Debug_PutString
 121              	.LVL13:
 122              	.L6:
  64:main.c        ****     }
  65:main.c        ****     
  66:main.c        ****     /*      I2C Reading Status Register       */
  67:main.c        ****     
  68:main.c        ****     
  69:main.c        ****     error = I2C_Peripheral_ReadRegister(LIS3DH_DEVICE_ADDRESS,
 123              		.loc 1 69 0
 124 0070 854A     		ldr	r2, .L28+24
 125 0072 2721     		movs	r1, #39
 126 0074 1820     		movs	r0, #24
 127 0076 FFF7FEFF 		bl	I2C_Peripheral_ReadRegister
 128              	.LVL14:
 129 007a 804B     		ldr	r3, .L28+12
 130 007c 1870     		strb	r0, [r3]
  70:main.c        ****                                         LIS3DH_STATUS_REG,
  71:main.c        ****                                         &status_register);
  72:main.c        ****     
  73:main.c        ****     if (error == NO_ERROR)
 131              		.loc 1 73 0
 132 007e 48B9     		cbnz	r0, .L7
  74:main.c        ****     {
  75:main.c        ****         sprintf(message, "STATUS REGISTER: 0x%02X\r\n", status_register);
 133              		.loc 1 75 0
 134 0080 814B     		ldr	r3, .L28+24
 135 0082 1A78     		ldrb	r2, [r3]	@ zero_extendqisi2
 136 0084 8149     		ldr	r1, .L28+28
 137 0086 01A8     		add	r0, sp, #4
 138 0088 FFF7FEFF 		bl	sprintf
 139              	.LVL15:
  76:main.c        ****         UART_Debug_PutString(message); 
 140              		.loc 1 76 0
 141 008c 01A8     		add	r0, sp, #4
 142 008e FFF7FEFF 		bl	UART_Debug_PutString
 143              	.LVL16:
 144 0092 02E0     		b	.L8
 145              	.L7:
  77:main.c        ****     }
  78:main.c        ****     else
  79:main.c        ****     {
  80:main.c        ****         UART_Debug_PutString("Error occurred during I2C comm to read status register\r\n");   
 146              		.loc 1 80 0
ARM GAS  C:\Users\annat\AppData\Local\Temp\ccX9orGc.s 			page 5


 147 0094 7E48     		ldr	r0, .L28+32
 148 0096 FFF7FEFF 		bl	UART_Debug_PutString
 149              	.LVL17:
 150              	.L8:
  81:main.c        ****     }
  82:main.c        ****     
  83:main.c        ****     /******************************************/
  84:main.c        ****     /*        Read Control Register 1         */
  85:main.c        ****     /******************************************/
  86:main.c        ****     uint8_t ctrl_reg1; 
  87:main.c        ****     error = I2C_Peripheral_ReadRegister(LIS3DH_DEVICE_ADDRESS,
 151              		.loc 1 87 0
 152 009a 0DF10202 		add	r2, sp, #2
 153 009e 2021     		movs	r1, #32
 154 00a0 1820     		movs	r0, #24
 155 00a2 FFF7FEFF 		bl	I2C_Peripheral_ReadRegister
 156              	.LVL18:
 157 00a6 754B     		ldr	r3, .L28+12
 158 00a8 1870     		strb	r0, [r3]
  88:main.c        ****                                         LIS3DH_CTRL_REG1,
  89:main.c        ****                                         &ctrl_reg1);
  90:main.c        ****     
  91:main.c        ****     if (error == NO_ERROR)
 159              		.loc 1 91 0
 160 00aa 48B9     		cbnz	r0, .L9
  92:main.c        ****     {
  93:main.c        ****         sprintf(message, "CONTROL REGISTER 1: 0x%02X\r\n", ctrl_reg1);
 161              		.loc 1 93 0
 162 00ac 9DF80220 		ldrb	r2, [sp, #2]	@ zero_extendqisi2
 163 00b0 7849     		ldr	r1, .L28+36
 164 00b2 01A8     		add	r0, sp, #4
 165 00b4 FFF7FEFF 		bl	sprintf
 166              	.LVL19:
  94:main.c        ****         UART_Debug_PutString(message); 
 167              		.loc 1 94 0
 168 00b8 01A8     		add	r0, sp, #4
 169 00ba FFF7FEFF 		bl	UART_Debug_PutString
 170              	.LVL20:
 171 00be 02E0     		b	.L10
 172              	.L9:
  95:main.c        ****     }
  96:main.c        ****     else
  97:main.c        ****     {
  98:main.c        ****         UART_Debug_PutString("Error occurred during I2C comm to read control register 1\r\n");   
 173              		.loc 1 98 0
 174 00c0 7548     		ldr	r0, .L28+40
 175 00c2 FFF7FEFF 		bl	UART_Debug_PutString
 176              	.LVL21:
 177              	.L10:
  99:main.c        ****     }
 100:main.c        ****     
 101:main.c        ****     /******************************************/
 102:main.c        ****     /*            I2C Writing                 */
 103:main.c        ****     /******************************************/
 104:main.c        ****     
 105:main.c        ****         
 106:main.c        ****     UART_Debug_PutString("\r\nWriting new values..\r\n");
ARM GAS  C:\Users\annat\AppData\Local\Temp\ccX9orGc.s 			page 6


 178              		.loc 1 106 0
 179 00c6 7548     		ldr	r0, .L28+44
 180 00c8 FFF7FEFF 		bl	UART_Debug_PutString
 181              	.LVL22:
 107:main.c        ****     
 108:main.c        ****     if (ctrl_reg1 != LIS3DH_HIGH_RESOLUTION_MODE_CTRL_REG1)
 182              		.loc 1 108 0
 183 00cc 9DF80230 		ldrb	r3, [sp, #2]	@ zero_extendqisi2
 184 00d0 572B     		cmp	r3, #87
 185 00d2 16D0     		beq	.L11
 109:main.c        ****     {
 110:main.c        ****         ctrl_reg1 = LIS3DH_HIGH_RESOLUTION_MODE_CTRL_REG1;
 186              		.loc 1 110 0
 187 00d4 5722     		movs	r2, #87
 188 00d6 8DF80220 		strb	r2, [sp, #2]
 111:main.c        ****     
 112:main.c        ****         error = I2C_Peripheral_WriteRegister(LIS3DH_DEVICE_ADDRESS,
 189              		.loc 1 112 0
 190 00da 2021     		movs	r1, #32
 191 00dc 1820     		movs	r0, #24
 192 00de FFF7FEFF 		bl	I2C_Peripheral_WriteRegister
 193              	.LVL23:
 194 00e2 664B     		ldr	r3, .L28+12
 195 00e4 1870     		strb	r0, [r3]
 113:main.c        ****                                              LIS3DH_CTRL_REG1,
 114:main.c        ****                                              ctrl_reg1);
 115:main.c        ****     
 116:main.c        ****         if (error == NO_ERROR)
 196              		.loc 1 116 0
 197 00e6 48B9     		cbnz	r0, .L12
 117:main.c        ****         {
 118:main.c        ****             sprintf(message, "CONTROL REGISTER 1 successfully written as: 0x%02X\r\n", ctrl_reg1);
 198              		.loc 1 118 0
 199 00e8 9DF80220 		ldrb	r2, [sp, #2]	@ zero_extendqisi2
 200 00ec 6C49     		ldr	r1, .L28+48
 201 00ee 01A8     		add	r0, sp, #4
 202 00f0 FFF7FEFF 		bl	sprintf
 203              	.LVL24:
 119:main.c        ****             UART_Debug_PutString(message); 
 204              		.loc 1 119 0
 205 00f4 01A8     		add	r0, sp, #4
 206 00f6 FFF7FEFF 		bl	UART_Debug_PutString
 207              	.LVL25:
 208 00fa 02E0     		b	.L11
 209              	.L12:
 120:main.c        ****         }
 121:main.c        ****         else
 122:main.c        ****         {
 123:main.c        ****             UART_Debug_PutString("Error occurred during I2C comm to set control register 1\r\n");  
 210              		.loc 1 123 0
 211 00fc 6948     		ldr	r0, .L28+52
 212 00fe FFF7FEFF 		bl	UART_Debug_PutString
 213              	.LVL26:
 214              	.L11:
 124:main.c        ****         }
 125:main.c        ****     }
 126:main.c        ****     
ARM GAS  C:\Users\annat\AppData\Local\Temp\ccX9orGc.s 			page 7


 127:main.c        ****     /******************************************/
 128:main.c        ****     /*     Read Control Register 1 again      */
 129:main.c        ****     /******************************************/
 130:main.c        **** 
 131:main.c        ****     error = I2C_Peripheral_ReadRegister(LIS3DH_DEVICE_ADDRESS,
 215              		.loc 1 131 0
 216 0102 0DF10202 		add	r2, sp, #2
 217 0106 2021     		movs	r1, #32
 218 0108 1820     		movs	r0, #24
 219 010a FFF7FEFF 		bl	I2C_Peripheral_ReadRegister
 220              	.LVL27:
 221 010e 5B4B     		ldr	r3, .L28+12
 222 0110 1870     		strb	r0, [r3]
 132:main.c        ****                                         LIS3DH_CTRL_REG1,
 133:main.c        ****                                         &ctrl_reg1);
 134:main.c        ****     
 135:main.c        ****     if (error == NO_ERROR)
 223              		.loc 1 135 0
 224 0112 48B9     		cbnz	r0, .L13
 136:main.c        ****     {
 137:main.c        ****         sprintf(message, "CONTROL REGISTER 1 after overwrite operation: 0x%02X\r\n", ctrl_reg1);
 225              		.loc 1 137 0
 226 0114 9DF80220 		ldrb	r2, [sp, #2]	@ zero_extendqisi2
 227 0118 6349     		ldr	r1, .L28+56
 228 011a 01A8     		add	r0, sp, #4
 229 011c FFF7FEFF 		bl	sprintf
 230              	.LVL28:
 138:main.c        ****         UART_Debug_PutString(message); 
 231              		.loc 1 138 0
 232 0120 01A8     		add	r0, sp, #4
 233 0122 FFF7FEFF 		bl	UART_Debug_PutString
 234              	.LVL29:
 235 0126 02E0     		b	.L14
 236              	.L13:
 139:main.c        ****     }
 140:main.c        ****     else
 141:main.c        ****     {
 142:main.c        ****         UART_Debug_PutString("Error occurred during I2C comm to read control register 1\r\n");   
 237              		.loc 1 142 0
 238 0128 5B48     		ldr	r0, .L28+40
 239 012a FFF7FEFF 		bl	UART_Debug_PutString
 240              	.LVL30:
 241              	.L14:
 143:main.c        ****     }
 144:main.c        ****     
 145:main.c        ****      /******************************************/
 146:main.c        ****      /* I2C Reading Temperature sensor CFG reg */
 147:main.c        ****      /******************************************/
 148:main.c        **** 
 149:main.c        ****     uint8_t tmp_cfg_reg;
 150:main.c        **** 
 151:main.c        ****     error = I2C_Peripheral_ReadRegister(LIS3DH_DEVICE_ADDRESS,
 242              		.loc 1 151 0
 243 012e 0DF10102 		add	r2, sp, #1
 244 0132 1F21     		movs	r1, #31
 245 0134 1820     		movs	r0, #24
 246 0136 FFF7FEFF 		bl	I2C_Peripheral_ReadRegister
ARM GAS  C:\Users\annat\AppData\Local\Temp\ccX9orGc.s 			page 8


 247              	.LVL31:
 248 013a 504B     		ldr	r3, .L28+12
 249 013c 1870     		strb	r0, [r3]
 152:main.c        ****                                         LIS3DH_TEMP_CFG_REG,
 153:main.c        ****                                         &tmp_cfg_reg);
 154:main.c        ****     
 155:main.c        ****     if (error == NO_ERROR)
 250              		.loc 1 155 0
 251 013e 48B9     		cbnz	r0, .L15
 156:main.c        ****     {
 157:main.c        ****         sprintf(message, "TEMPERATURE CONFIG REGISTER: 0x%02X\r\n", tmp_cfg_reg);
 252              		.loc 1 157 0
 253 0140 9DF80120 		ldrb	r2, [sp, #1]	@ zero_extendqisi2
 254 0144 5949     		ldr	r1, .L28+60
 255 0146 01A8     		add	r0, sp, #4
 256 0148 FFF7FEFF 		bl	sprintf
 257              	.LVL32:
 158:main.c        ****         UART_Debug_PutString(message); 
 258              		.loc 1 158 0
 259 014c 01A8     		add	r0, sp, #4
 260 014e FFF7FEFF 		bl	UART_Debug_PutString
 261              	.LVL33:
 262 0152 02E0     		b	.L16
 263              	.L15:
 159:main.c        ****     }
 160:main.c        ****     else
 161:main.c        ****     {
 162:main.c        ****         UART_Debug_PutString("Error occurred during I2C comm to read temperature config register\r\
 264              		.loc 1 162 0
 265 0154 5648     		ldr	r0, .L28+64
 266 0156 FFF7FEFF 		bl	UART_Debug_PutString
 267              	.LVL34:
 268              	.L16:
 163:main.c        ****     }
 164:main.c        ****     
 165:main.c        ****     
 166:main.c        ****     tmp_cfg_reg = LIS3DH_TEMP_CFG_REG_ACTIVE; // must be changed to the appropriate value
 269              		.loc 1 166 0
 270 015a C022     		movs	r2, #192
 271 015c 0EAC     		add	r4, sp, #56
 272              	.LVL35:
 273 015e 04F8372D 		strb	r2, [r4, #-55]!
 167:main.c        ****     
 168:main.c        ****     error = I2C_Peripheral_WriteRegister(LIS3DH_DEVICE_ADDRESS,
 274              		.loc 1 168 0
 275 0162 1F21     		movs	r1, #31
 276 0164 1820     		movs	r0, #24
 277 0166 FFF7FEFF 		bl	I2C_Peripheral_WriteRegister
 278              	.LVL36:
 279 016a 444D     		ldr	r5, .L28+12
 280 016c 2870     		strb	r0, [r5]
 169:main.c        ****                                          LIS3DH_TEMP_CFG_REG,
 170:main.c        ****                                          tmp_cfg_reg);
 171:main.c        ****     
 172:main.c        ****     error = I2C_Peripheral_ReadRegister(LIS3DH_DEVICE_ADDRESS,
 281              		.loc 1 172 0
 282 016e 2246     		mov	r2, r4
ARM GAS  C:\Users\annat\AppData\Local\Temp\ccX9orGc.s 			page 9


 283 0170 1F21     		movs	r1, #31
 284 0172 1820     		movs	r0, #24
 285 0174 FFF7FEFF 		bl	I2C_Peripheral_ReadRegister
 286              	.LVL37:
 287 0178 2870     		strb	r0, [r5]
 173:main.c        ****                                         LIS3DH_TEMP_CFG_REG,
 174:main.c        ****                                         &tmp_cfg_reg);
 175:main.c        ****     
 176:main.c        ****     
 177:main.c        ****     if (error == NO_ERROR)
 288              		.loc 1 177 0
 289 017a 48B9     		cbnz	r0, .L17
 178:main.c        ****     {
 179:main.c        ****         sprintf(message, "TEMPERATURE CONFIG REGISTER after being updated: 0x%02X\r\n", tmp_cfg_reg
 290              		.loc 1 179 0
 291 017c 9DF80120 		ldrb	r2, [sp, #1]	@ zero_extendqisi2
 292 0180 4C49     		ldr	r1, .L28+68
 293 0182 01A8     		add	r0, sp, #4
 294 0184 FFF7FEFF 		bl	sprintf
 295              	.LVL38:
 180:main.c        ****         UART_Debug_PutString(message); 
 296              		.loc 1 180 0
 297 0188 01A8     		add	r0, sp, #4
 298 018a FFF7FEFF 		bl	UART_Debug_PutString
 299              	.LVL39:
 300 018e 02E0     		b	.L18
 301              	.L17:
 181:main.c        ****     }
 182:main.c        ****     else
 183:main.c        ****     {
 184:main.c        ****         UART_Debug_PutString("Error occurred during I2C comm to read temperature config register\r\
 302              		.loc 1 184 0
 303 0190 4748     		ldr	r0, .L28+64
 304 0192 FFF7FEFF 		bl	UART_Debug_PutString
 305              	.LVL40:
 306              	.L18:
 185:main.c        ****     }
 186:main.c        ****     
 187:main.c        ****     uint8_t ctrl_reg4;
 188:main.c        **** 
 189:main.c        ****     error = I2C_Peripheral_ReadRegister(LIS3DH_DEVICE_ADDRESS,
 307              		.loc 1 189 0
 308 0196 6A46     		mov	r2, sp
 309 0198 2321     		movs	r1, #35
 310 019a 1820     		movs	r0, #24
 311 019c FFF7FEFF 		bl	I2C_Peripheral_ReadRegister
 312              	.LVL41:
 313 01a0 364B     		ldr	r3, .L28+12
 314 01a2 1870     		strb	r0, [r3]
 190:main.c        ****                                         LIS3DH_CTRL_REG4,
 191:main.c        ****                                         &ctrl_reg4);
 192:main.c        ****     
 193:main.c        ****     if (error == NO_ERROR)
 315              		.loc 1 193 0
 316 01a4 48B9     		cbnz	r0, .L19
 194:main.c        ****     {
 195:main.c        ****         sprintf(message, "CONTROL REGISTER 4: 0x%02X\r\n", ctrl_reg4);
ARM GAS  C:\Users\annat\AppData\Local\Temp\ccX9orGc.s 			page 10


 317              		.loc 1 195 0
 318 01a6 9DF80020 		ldrb	r2, [sp]	@ zero_extendqisi2
 319 01aa 4349     		ldr	r1, .L28+72
 320 01ac 01A8     		add	r0, sp, #4
 321 01ae FFF7FEFF 		bl	sprintf
 322              	.LVL42:
 196:main.c        ****         UART_Debug_PutString(message); 
 323              		.loc 1 196 0
 324 01b2 01A8     		add	r0, sp, #4
 325 01b4 FFF7FEFF 		bl	UART_Debug_PutString
 326              	.LVL43:
 327 01b8 02E0     		b	.L20
 328              	.L19:
 197:main.c        ****     }
 198:main.c        ****     else
 199:main.c        ****     {
 200:main.c        ****         UART_Debug_PutString("Error occurred during I2C comm to read control register4\r\n");   
 329              		.loc 1 200 0
 330 01ba 4048     		ldr	r0, .L28+76
 331 01bc FFF7FEFF 		bl	UART_Debug_PutString
 332              	.LVL44:
 333              	.L20:
 201:main.c        ****     }
 202:main.c        ****     
 203:main.c        ****     
 204:main.c        ****     ctrl_reg4 = LIS3DH_CTRL_REG4_BDU_ACTIVE; // must be changed to the appropriate value
 334              		.loc 1 204 0
 335 01c0 8022     		movs	r2, #128
 336 01c2 0EAC     		add	r4, sp, #56
 337 01c4 04F8382D 		strb	r2, [r4, #-56]!
 205:main.c        ****     
 206:main.c        ****     error = I2C_Peripheral_WriteRegister(LIS3DH_DEVICE_ADDRESS,
 338              		.loc 1 206 0
 339 01c8 2321     		movs	r1, #35
 340 01ca 1820     		movs	r0, #24
 341 01cc FFF7FEFF 		bl	I2C_Peripheral_WriteRegister
 342              	.LVL45:
 343 01d0 2A4D     		ldr	r5, .L28+12
 344 01d2 2870     		strb	r0, [r5]
 207:main.c        ****                                          LIS3DH_CTRL_REG4,
 208:main.c        ****                                          ctrl_reg4);
 209:main.c        ****     
 210:main.c        ****     error = I2C_Peripheral_ReadRegister(LIS3DH_DEVICE_ADDRESS,
 345              		.loc 1 210 0
 346 01d4 2246     		mov	r2, r4
 347 01d6 2321     		movs	r1, #35
 348 01d8 1820     		movs	r0, #24
 349 01da FFF7FEFF 		bl	I2C_Peripheral_ReadRegister
 350              	.LVL46:
 351 01de 2870     		strb	r0, [r5]
 211:main.c        ****                                         LIS3DH_CTRL_REG4,
 212:main.c        ****                                         &ctrl_reg4);
 213:main.c        ****     
 214:main.c        ****     
 215:main.c        ****     if (error == NO_ERROR)
 352              		.loc 1 215 0
 353 01e0 48B9     		cbnz	r0, .L21
ARM GAS  C:\Users\annat\AppData\Local\Temp\ccX9orGc.s 			page 11


 216:main.c        ****     {
 217:main.c        ****         sprintf(message, "CONTROL REGISTER 4 after being updated: 0x%02X\r\n", ctrl_reg4);
 354              		.loc 1 217 0
 355 01e2 9DF80020 		ldrb	r2, [sp]	@ zero_extendqisi2
 356 01e6 3649     		ldr	r1, .L28+80
 357 01e8 01A8     		add	r0, sp, #4
 358 01ea FFF7FEFF 		bl	sprintf
 359              	.LVL47:
 218:main.c        ****         UART_Debug_PutString(message); 
 360              		.loc 1 218 0
 361 01ee 01A8     		add	r0, sp, #4
 362 01f0 FFF7FEFF 		bl	UART_Debug_PutString
 363              	.LVL48:
 364 01f4 02E0     		b	.L22
 365              	.L21:
 219:main.c        ****     }
 220:main.c        ****     else
 221:main.c        ****     {
 222:main.c        ****         UART_Debug_PutString("Error occurred during I2C comm to read control register4\r\n");   
 366              		.loc 1 222 0
 367 01f6 3148     		ldr	r0, .L28+76
 368 01f8 FFF7FEFF 		bl	UART_Debug_PutString
 369              	.LVL49:
 370              	.L22:
 223:main.c        ****     }
 224:main.c        ****     
 225:main.c        ****     uint8_t header = 0xA0;
 226:main.c        ****     uint8_t footer = 0xC0;
 227:main.c        ****     
 228:main.c        ****     OutArray[0] = header;
 371              		.loc 1 228 0
 372 01fc 314B     		ldr	r3, .L28+84
 373 01fe A022     		movs	r2, #160
 374 0200 1A70     		strb	r2, [r3]
 229:main.c        ****     OutArray[TRANSMIT_BUFFER_SIZE-1] = footer;
 375              		.loc 1 229 0
 376 0202 C022     		movs	r2, #192
 377 0204 5A73     		strb	r2, [r3, #13]
 230:main.c        ****     
 231:main.c        ****     ctrl_reg4 = LIS3DH_HIGH_RESOLUTION_MODE_CTRL_REG4; 
 378              		.loc 1 231 0
 379 0206 9822     		movs	r2, #152
 380 0208 0EAC     		add	r4, sp, #56
 381 020a 04F8382D 		strb	r2, [r4, #-56]!
 232:main.c        ****     error = I2C_Peripheral_WriteRegister(LIS3DH_DEVICE_ADDRESS,
 382              		.loc 1 232 0
 383 020e 2321     		movs	r1, #35
 384 0210 1820     		movs	r0, #24
 385 0212 FFF7FEFF 		bl	I2C_Peripheral_WriteRegister
 386              	.LVL50:
 387 0216 194D     		ldr	r5, .L28+12
 388 0218 2870     		strb	r0, [r5]
 233:main.c        ****                                          LIS3DH_CTRL_REG4,
 234:main.c        ****                                          ctrl_reg4);
 235:main.c        ****     
 236:main.c        ****     error = I2C_Peripheral_ReadRegister(LIS3DH_DEVICE_ADDRESS,
 389              		.loc 1 236 0
ARM GAS  C:\Users\annat\AppData\Local\Temp\ccX9orGc.s 			page 12


 390 021a 2246     		mov	r2, r4
 391 021c 2321     		movs	r1, #35
 392 021e 1820     		movs	r0, #24
 393 0220 FFF7FEFF 		bl	I2C_Peripheral_ReadRegister
 394              	.LVL51:
 395 0224 2870     		strb	r0, [r5]
 237:main.c        ****                                          LIS3DH_CTRL_REG4,
 238:main.c        ****                                          &ctrl_reg4);
 239:main.c        ****     if (error == NO_ERROR)
 396              		.loc 1 239 0
 397 0226 48B9     		cbnz	r0, .L23
 240:main.c        ****     {
 241:main.c        ****         sprintf(message, "MIO CONTROL REGISTER 4 after being updated: 0x%02X\r\n", ctrl_reg4);
 398              		.loc 1 241 0
 399 0228 9DF80020 		ldrb	r2, [sp]	@ zero_extendqisi2
 400 022c 2649     		ldr	r1, .L28+88
 401 022e 01A8     		add	r0, sp, #4
 402 0230 FFF7FEFF 		bl	sprintf
 403              	.LVL52:
 242:main.c        ****         UART_Debug_PutString(message); 
 404              		.loc 1 242 0
 405 0234 01A8     		add	r0, sp, #4
 406 0236 FFF7FEFF 		bl	UART_Debug_PutString
 407              	.LVL53:
 408 023a 02E0     		b	.L24
 409              	.L23:
 243:main.c        ****     }
 244:main.c        ****     else
 245:main.c        ****     {
 246:main.c        ****         UART_Debug_PutString("Error occurred during I2C comm to read control register4\r\n");   
 410              		.loc 1 246 0
 411 023c 1F48     		ldr	r0, .L28+76
 412 023e FFF7FEFF 		bl	UART_Debug_PutString
 413              	.LVL54:
 414              	.L24:
 247:main.c        ****     }
 248:main.c        ****     
 249:main.c        ****     ctrl_reg1 = LIS3DH_HIGH_RESOLUTION_MODE_CTRL_REG1; 
 415              		.loc 1 249 0
 416 0242 5722     		movs	r2, #87
 417 0244 8DF80220 		strb	r2, [sp, #2]
 250:main.c        ****     error = I2C_Peripheral_WriteRegister(LIS3DH_DEVICE_ADDRESS,
 418              		.loc 1 250 0
 419 0248 2021     		movs	r1, #32
 420 024a 1820     		movs	r0, #24
 421 024c FFF7FEFF 		bl	I2C_Peripheral_WriteRegister
 422              	.LVL55:
 423 0250 0A4B     		ldr	r3, .L28+12
 424 0252 1870     		strb	r0, [r3]
 425              	.L25:
 251:main.c        ****                                          LIS3DH_CTRL_REG1,
 252:main.c        ****                                          ctrl_reg1);
 253:main.c        ****     
 254:main.c        ****     for(;;)
 255:main.c        ****     {   
 256:main.c        ****         if(FlagPacketReady == 1){
 426              		.loc 1 256 0
ARM GAS  C:\Users\annat\AppData\Local\Temp\ccX9orGc.s 			page 13


 427 0254 074B     		ldr	r3, .L28+4
 428 0256 1B78     		ldrb	r3, [r3]	@ zero_extendqisi2
 429 0258 DBB2     		uxtb	r3, r3
 430 025a 012B     		cmp	r3, #1
 431 025c FAD1     		bne	.L25
 257:main.c        ****             UART_Debug_PutArray(OutArray,TRANSMIT_BUFFER_SIZE);
 432              		.loc 1 257 0
 433 025e 0E21     		movs	r1, #14
 434 0260 1848     		ldr	r0, .L28+84
 435 0262 FFF7FEFF 		bl	UART_Debug_PutArray
 436              	.LVL56:
 258:main.c        ****             //UART_Debug_PutString("CIAO\r\n");
 259:main.c        ****             FlagPacketReady = 0;
 437              		.loc 1 259 0
 438 0266 0022     		movs	r2, #0
 439 0268 024B     		ldr	r3, .L28+4
 440 026a 1A70     		strb	r2, [r3]
 441 026c F2E7     		b	.L25
 442              	.L29:
 443 026e 00BF     		.align	2
 444              	.L28:
 445 0270 00000000 		.word	CUSTOM_ISR_TIMER
 446 0274 00000000 		.word	FlagPacketReady
 447 0278 00000000 		.word	.LC0
 448 027c 00000000 		.word	error
 449 0280 20000000 		.word	.LC1
 450 0284 48000000 		.word	.LC2
 451 0288 00000000 		.word	status_register
 452 028c 6C000000 		.word	.LC3
 453 0290 88000000 		.word	.LC4
 454 0294 C4000000 		.word	.LC5
 455 0298 E4000000 		.word	.LC6
 456 029c 20010000 		.word	.LC7
 457 02a0 3C010000 		.word	.LC8
 458 02a4 74010000 		.word	.LC9
 459 02a8 B0010000 		.word	.LC10
 460 02ac E8010000 		.word	.LC11
 461 02b0 10020000 		.word	.LC12
 462 02b4 58020000 		.word	.LC13
 463 02b8 94020000 		.word	.LC14
 464 02bc B4020000 		.word	.LC15
 465 02c0 F0020000 		.word	.LC16
 466 02c4 00000000 		.word	OutArray
 467 02c8 24030000 		.word	.LC17
 468              		.cfi_endproc
 469              	.LFE64:
 470              		.size	main, .-main
 471              		.comm	FlagPacketReady,1,1
 472              		.comm	OutArray,14,4
 473              		.comm	float_z,4,4
 474              		.comm	float_y,4,4
 475              		.comm	float_x,4,4
 476              		.comm	Acc_zData,2,4
 477              		.comm	Acc_yData,2,4
 478              		.comm	Acc_xData,2,4
 479              		.comm	Accelerometer_z,2,2
 480              		.comm	Accelerometer_y,2,2
ARM GAS  C:\Users\annat\AppData\Local\Temp\ccX9orGc.s 			page 14


 481              		.comm	Accelerometer_x,2,2
 482              		.comm	status_register,1,1
 483              		.comm	error,1,1
 484              		.section	.rodata.str1.4,"aMS",%progbits,1
 485              		.align	2
 486              	.LC0:
 487 0000 44657669 		.ascii	"Device 0x%02X is connected\015\012\000"
 487      63652030 
 487      78253032 
 487      58206973 
 487      20636F6E 
 488 001d 000000   		.space	3
 489              	.LC1:
 490 0020 57484F20 		.ascii	"WHO AM I REG: 0x%02X [Expected: 0x33]\015\012\000"
 490      414D2049 
 490      20524547 
 490      3A203078 
 490      25303258 
 491              	.LC2:
 492 0048 4572726F 		.ascii	"Error occurred during I2C comm\015\012\000"
 492      72206F63 
 492      63757272 
 492      65642064 
 492      7572696E 
 493 0069 000000   		.space	3
 494              	.LC3:
 495 006c 53544154 		.ascii	"STATUS REGISTER: 0x%02X\015\012\000"
 495      55532052 
 495      45474953 
 495      5445523A 
 495      20307825 
 496 0086 0000     		.space	2
 497              	.LC4:
 498 0088 4572726F 		.ascii	"Error occurred during I2C comm to read status regis"
 498      72206F63 
 498      63757272 
 498      65642064 
 498      7572696E 
 499 00bb 7465720D 		.ascii	"ter\015\012\000"
 499      0A00
 500 00c1 000000   		.space	3
 501              	.LC5:
 502 00c4 434F4E54 		.ascii	"CONTROL REGISTER 1: 0x%02X\015\012\000"
 502      524F4C20 
 502      52454749 
 502      53544552 
 502      20313A20 
 503 00e1 000000   		.space	3
 504              	.LC6:
 505 00e4 4572726F 		.ascii	"Error occurred during I2C comm to read control regi"
 505      72206F63 
 505      63757272 
 505      65642064 
 505      7572696E 
 506 0117 73746572 		.ascii	"ster 1\015\012\000"
 506      20310D0A 
 506      00
ARM GAS  C:\Users\annat\AppData\Local\Temp\ccX9orGc.s 			page 15


 507              	.LC7:
 508 0120 0D0A5772 		.ascii	"\015\012Writing new values..\015\012\000"
 508      6974696E 
 508      67206E65 
 508      77207661 
 508      6C756573 
 509 0139 000000   		.space	3
 510              	.LC8:
 511 013c 434F4E54 		.ascii	"CONTROL REGISTER 1 successfully written as: 0x%02X\015"
 511      524F4C20 
 511      52454749 
 511      53544552 
 511      20312073 
 512 016f 0A00     		.ascii	"\012\000"
 513 0171 000000   		.space	3
 514              	.LC9:
 515 0174 4572726F 		.ascii	"Error occurred during I2C comm to set control regis"
 515      72206F63 
 515      63757272 
 515      65642064 
 515      7572696E 
 516 01a7 74657220 		.ascii	"ter 1\015\012\000"
 516      310D0A00 
 517 01af 00       		.space	1
 518              	.LC10:
 519 01b0 434F4E54 		.ascii	"CONTROL REGISTER 1 after overwrite operation: 0x%02"
 519      524F4C20 
 519      52454749 
 519      53544552 
 519      20312061 
 520 01e3 580D0A00 		.ascii	"X\015\012\000"
 521 01e7 00       		.space	1
 522              	.LC11:
 523 01e8 54454D50 		.ascii	"TEMPERATURE CONFIG REGISTER: 0x%02X\015\012\000"
 523      45524154 
 523      55524520 
 523      434F4E46 
 523      49472052 
 524 020e 0000     		.space	2
 525              	.LC12:
 526 0210 4572726F 		.ascii	"Error occurred during I2C comm to read temperature "
 526      72206F63 
 526      63757272 
 526      65642064 
 526      7572696E 
 527 0243 636F6E66 		.ascii	"config register\015\012\000"
 527      69672072 
 527      65676973 
 527      7465720D 
 527      0A00
 528 0255 000000   		.space	3
 529              	.LC13:
 530 0258 54454D50 		.ascii	"TEMPERATURE CONFIG REGISTER after being updated: 0x"
 530      45524154 
 530      55524520 
 530      434F4E46 
 530      49472052 
ARM GAS  C:\Users\annat\AppData\Local\Temp\ccX9orGc.s 			page 16


 531 028b 25303258 		.ascii	"%02X\015\012\000"
 531      0D0A00
 532 0292 0000     		.space	2
 533              	.LC14:
 534 0294 434F4E54 		.ascii	"CONTROL REGISTER 4: 0x%02X\015\012\000"
 534      524F4C20 
 534      52454749 
 534      53544552 
 534      20343A20 
 535 02b1 000000   		.space	3
 536              	.LC15:
 537 02b4 4572726F 		.ascii	"Error occurred during I2C comm to read control regi"
 537      72206F63 
 537      63757272 
 537      65642064 
 537      7572696E 
 538 02e7 73746572 		.ascii	"ster4\015\012\000"
 538      340D0A00 
 539 02ef 00       		.space	1
 540              	.LC16:
 541 02f0 434F4E54 		.ascii	"CONTROL REGISTER 4 after being updated: 0x%02X\015\012"
 541      524F4C20 
 541      52454749 
 541      53544552 
 541      20342061 
 542 0320 00       		.ascii	"\000"
 543 0321 000000   		.space	3
 544              	.LC17:
 545 0324 4D494F20 		.ascii	"MIO CONTROL REGISTER 4 after being updated: 0x%02X\015"
 545      434F4E54 
 545      524F4C20 
 545      52454749 
 545      53544552 
 546 0357 0A00     		.ascii	"\012\000"
 547              		.text
 548              	.Letext0:
 549              		.file 2 "c:\\program files (x86)\\cypress\\psoc creator\\4.3\\psoc creator\\import\\gnu\\arm\\5.4.
 550              		.file 3 "c:\\program files (x86)\\cypress\\psoc creator\\4.3\\psoc creator\\import\\gnu\\arm\\5.4.
 551              		.file 4 "ErrorCodes.h"
 552              		.file 5 "InterruptRoutines.h"
 553              		.file 6 "Generated_Source\\PSoC5/core_cm3.h"
 554              		.file 7 "I2C_Interface.h"
 555              		.file 8 "c:\\program files (x86)\\cypress\\psoc creator\\4.3\\psoc creator\\import\\gnu\\arm\\5.4.
 556              		.file 9 "Generated_Source\\PSoC5/UART_Debug.h"
 557              		.file 10 "Generated_Source\\PSoC5/Timer.h"
 558              		.file 11 "Generated_Source\\PSoC5/TIMER_isr.h"
 559              		.file 12 "Generated_Source\\PSoC5/CyLib.h"